target datalayout = "e-m:e-p270:32:32-p271:32:32-p272:64:64-i64:64-i128:128-f80:128-n8:16:32:64-S128"
target triple = "x86_64-pc-linux-gnu"

%struct.FilterParams = type { i32, double, ptr, ptr, ptr }

; Function Attrs: nounwind uwtable
define internal void @blend_interpolate_9bit(ptr noundef %0, i64 noundef %1, ptr noundef %2, i64 noundef %3, ptr noundef %4, i64 noundef %5, i64 noundef %6, i64 noundef %7, ptr noundef %8, ptr noundef %9) #0 {
  %11 = alloca ptr, align 8
  %12 = alloca i64, align 8
  %13 = alloca ptr, align 8
  %14 = alloca i64, align 8
  %15 = alloca ptr, align 8
  %16 = alloca i64, align 8
  %17 = alloca i64, align 8
  %18 = alloca i64, align 8
  %19 = alloca ptr, align 8
  %20 = alloca ptr, align 8
  %21 = alloca ptr, align 8
  %22 = alloca ptr, align 8
  %23 = alloca ptr, align 8
  %24 = alloca float, align 4
  %25 = alloca i32, align 4
  %26 = alloca i32, align 4
  %27 = alloca i32, align 4
  store ptr %0, ptr %11, align 8, !tbaa !46
  store i64 %1, ptr %12, align 8, !tbaa !88
  store ptr %2, ptr %13, align 8, !tbaa !46
  store i64 %3, ptr %14, align 8, !tbaa !88
  store ptr %4, ptr %15, align 8, !tbaa !46
  store i64 %5, ptr %16, align 8, !tbaa !88
  store i64 %6, ptr %17, align 8, !tbaa !88
  store i64 %7, ptr %18, align 8, !tbaa !88
  store ptr %8, ptr %19, align 8, !tbaa !77
  store ptr %9, ptr %20, align 8, !tbaa !89
  call void @llvm.lifetime.start.p0(i64 8, ptr %21) #12
  %28 = load ptr, ptr %11, align 8, !tbaa !46
  store ptr %28, ptr %21, align 8, !tbaa !103
  call void @llvm.lifetime.start.p0(i64 8, ptr %22) #12
  %29 = load ptr, ptr %13, align 8, !tbaa !46
  store ptr %29, ptr %22, align 8, !tbaa !103
  call void @llvm.lifetime.start.p0(i64 8, ptr %23) #12
  %30 = load ptr, ptr %15, align 8, !tbaa !46
  store ptr %30, ptr %23, align 8, !tbaa !103
  call void @llvm.lifetime.start.p0(i64 4, ptr %24) #12
  %31 = load ptr, ptr %19, align 8, !tbaa !77
  %32 = getelementptr inbounds nuw %struct.FilterParams, ptr %31, i32 0, i32 1
  %33 = load double, ptr %32, align 8, !tbaa !82
  %34 = fptrunc nsz double %33 to float
  store float %34, ptr %24, align 4, !tbaa !99
  %35 = load i64, ptr %16, align 8, !tbaa !88
  %36 = udiv i64 %35, 2
  store i64 %36, ptr %16, align 8, !tbaa !88
  %37 = load i64, ptr %12, align 8, !tbaa !88
  %38 = udiv i64 %37, 2
  store i64 %38, ptr %12, align 8, !tbaa !88
  %39 = load i64, ptr %14, align 8, !tbaa !88
  %40 = udiv i64 %39, 2
  store i64 %40, ptr %14, align 8, !tbaa !88
  call void @llvm.lifetime.start.p0(i64 4, ptr %25) #12
  store i32 0, ptr %25, align 4, !tbaa !37
  br label %41

41:                                               ; preds = %117, %10
  %42 = load i32, ptr %25, align 4, !tbaa !37
  %43 = sext i32 %42 to i64
  %44 = load i64, ptr %18, align 8, !tbaa !88
  %45 = icmp slt i64 %43, %44
  br i1 %45, label %47, label %46

46:                                               ; preds = %41
  store i32 2, ptr %26, align 4
  call void @llvm.lifetime.end.p0(i64 4, ptr %25) #12
  br label %120

47:                                               ; preds = %41
  call void @llvm.lifetime.start.p0(i64 4, ptr %27) #12
  store i32 0, ptr %27, align 4, !tbaa !37
  br label %48

48:                                               ; preds = %104, %47
  %49 = load i32, ptr %27, align 4, !tbaa !37
  %50 = sext i32 %49 to i64
  %51 = load i64, ptr %17, align 8, !tbaa !88
  %52 = icmp slt i64 %50, %51
  br i1 %52, label %54, label %53

53:                                               ; preds = %48
  store i32 5, ptr %26, align 4
  call void @llvm.lifetime.end.p0(i64 4, ptr %27) #12
  br label %107

54:                                               ; preds = %48
  %55 = load ptr, ptr %21, align 8, !tbaa !103
  %56 = load i32, ptr %27, align 4, !tbaa !37
  %57 = sext i32 %56 to i64
  %58 = getelementptr inbounds i16, ptr %55, i64 %57
  %59 = load i16, ptr %58, align 2, !tbaa !105
  %60 = zext i16 %59 to i32
  %61 = sitofp i32 %60 to float
  %62 = load ptr, ptr %21, align 8, !tbaa !103
  %63 = load i32, ptr %27, align 4, !tbaa !37
  %64 = sext i32 %63 to i64
  %65 = getelementptr inbounds i16, ptr %62, i64 %64
  %66 = load i16, ptr %65, align 2, !tbaa !105
  %67 = zext i16 %66 to i32
  %68 = sitofp i32 %67 to double
  %69 = fmul nsz double %68, 0x400921FB54442D18
  %70 = fdiv nsz double %69, 5.110000e+02
  %71 = fptrunc nsz double %70 to float
  %72 = call nsz float @llvm.cos.f32(float %71)
  %73 = fsub nsz float 2.000000e+00, %72
  %74 = load ptr, ptr %22, align 8, !tbaa !103
  %75 = load i32, ptr %27, align 4, !tbaa !37
  %76 = sext i32 %75 to i64
  %77 = getelementptr inbounds i16, ptr %74, i64 %76
  %78 = load i16, ptr %77, align 2, !tbaa !105
  %79 = zext i16 %78 to i32
  %80 = sitofp i32 %79 to double
  %81 = fmul nsz double %80, 0x400921FB54442D18
  %82 = fdiv nsz double %81, 5.110000e+02
  %83 = fptrunc nsz double %82 to float
  %84 = call nsz float @llvm.cos.f32(float %83)
  %85 = fsub nsz float %73, %84
  %86 = fmul nsz float 5.110000e+02, %85
  %87 = fmul nsz float %86, 2.500000e-01
  %88 = call i64 @llvm.lrint.i64.f32(float %87)
  %89 = load ptr, ptr %21, align 8, !tbaa !103
  %90 = load i32, ptr %27, align 4, !tbaa !37
  %91 = sext i32 %90 to i64
  %92 = getelementptr inbounds i16, ptr %89, i64 %91
  %93 = load i16, ptr %92, align 2, !tbaa !105
  %94 = zext i16 %93 to i64
  %95 = sub nsw i64 %88, %94
  %96 = sitofp i64 %95 to float
  %97 = load float, ptr %24, align 4, !tbaa !99
  %98 = call nsz float @llvm.fmuladd.f32(float %96, float %97, float %61)
  %99 = fptoui float %98 to i16
  %100 = load ptr, ptr %23, align 8, !tbaa !103
  %101 = load i32, ptr %27, align 4, !tbaa !37
  %102 = sext i32 %101 to i64
  %103 = getelementptr inbounds i16, ptr %100, i64 %102
  store i16 %99, ptr %103, align 2, !tbaa !105
  br label %104

104:                                              ; preds = %54
  %105 = load i32, ptr %27, align 4, !tbaa !37
  %106 = add nsw i32 %105, 1
  store i32 %106, ptr %27, align 4, !tbaa !37
  br label %48, !llvm.loop !268

107:                                              ; preds = %53
  %108 = load i64, ptr %16, align 8, !tbaa !88
  %109 = load ptr, ptr %23, align 8, !tbaa !103
  %110 = getelementptr inbounds i16, ptr %109, i64 %108
  store ptr %110, ptr %23, align 8, !tbaa !103
  %111 = load i64, ptr %12, align 8, !tbaa !88
  %112 = load ptr, ptr %21, align 8, !tbaa !103
  %113 = getelementptr inbounds i16, ptr %112, i64 %111
  store ptr %113, ptr %21, align 8, !tbaa !103
  %114 = load i64, ptr %14, align 8, !tbaa !88
  %115 = load ptr, ptr %22, align 8, !tbaa !103
  %116 = getelementptr inbounds i16, ptr %115, i64 %114
  store ptr %116, ptr %22, align 8, !tbaa !103
  br label %117

117:                                              ; preds = %107
  %118 = load i32, ptr %25, align 4, !tbaa !37
  %119 = add nsw i32 %118, 1
  store i32 %119, ptr %25, align 4, !tbaa !37
  br label %41, !llvm.loop !269

120:                                              ; preds = %46
  call void @llvm.lifetime.end.p0(i64 4, ptr %24) #12
  call void @llvm.lifetime.end.p0(i64 8, ptr %23) #12
  call void @llvm.lifetime.end.p0(i64 8, ptr %22) #12
  call void @llvm.lifetime.end.p0(i64 8, ptr %21) #12
  ret void
}